target datalayout = "e-m:e-p270:32:32-p271:32:32-p272:64:64-i64:64-i128:128-f80:128-n8:16:32:64-S128"
target triple = "x86_64-unknown-linux-gnu"

%"struct.std::pair" = type { double, double }

; Function Attrs: mustprogress uwtable
define void @_ZN8QuantLib16UpperBoundEngine18multiplePathValuesERNS_21GenericRiskStatisticsINS_25GenericGaussianStatisticsINS_17GeneralStatisticsEEEEEmm(ptr noundef nonnull align 8 dereferenceable(512) %this, ptr noundef nonnull align 8 dereferenceable(25) %stats, i64 noundef %outerPaths, i64 noundef %innerPaths) #2 align 2 {
entry:
  %this.addr = alloca ptr, align 8
  %stats.addr = alloca ptr, align 8
  %outerPaths.addr = alloca i64, align 8
  %innerPaths.addr = alloca i64, align 8
  %i = alloca i64, align 8
  %result = alloca %"struct.std::pair", align 8
  store ptr %this, ptr %this.addr, align 8, !tbaa !3
  store ptr %stats, ptr %stats.addr, align 8, !tbaa !3
  store i64 %outerPaths, ptr %outerPaths.addr, align 8, !tbaa !68
  store i64 %innerPaths, ptr %innerPaths.addr, align 8, !tbaa !68
  %this1 = load ptr, ptr %this.addr, align 8
  call void @llvm.lifetime.start.p0(i64 8, ptr %i) #18
  store i64 0, ptr %i, align 8, !tbaa !68
  br label %for.cond

for.cond:                                         ; preds = %for.inc, %entry
  %0 = load i64, ptr %i, align 8, !tbaa !68
  %1 = load i64, ptr %outerPaths.addr, align 8, !tbaa !68
  %cmp = icmp ult i64 %0, %1
  br i1 %cmp, label %for.body, label %for.cond.cleanup

for.cond.cleanup:                                 ; preds = %for.cond
  call void @llvm.lifetime.end.p0(i64 8, ptr %i) #18
  br label %for.end

for.body:                                         ; preds = %for.cond
  call void @llvm.lifetime.start.p0(i64 16, ptr %result) #18
  %2 = load i64, ptr %innerPaths.addr, align 8, !tbaa !68
  %call = call { double, double } @_ZN8QuantLib16UpperBoundEngine15singlePathValueEm(ptr noundef nonnull align 8 dereferenceable(512) %this1, i64 noundef %2)
  %3 = getelementptr inbounds nuw { double, double }, ptr %result, i32 0, i32 0
  %4 = extractvalue { double, double } %call, 0
  store double %4, ptr %3, align 8
  %5 = getelementptr inbounds nuw { double, double }, ptr %result, i32 0, i32 1
  %6 = extractvalue { double, double } %call, 1
  store double %6, ptr %5, align 8
  %7 = load ptr, ptr %stats.addr, align 8, !tbaa !3
  %first = getelementptr inbounds nuw %"struct.std::pair", ptr %result, i32 0, i32 0
  %8 = load double, ptr %first, align 8, !tbaa !92
  %second = getelementptr inbounds nuw %"struct.std::pair", ptr %result, i32 0, i32 1
  %9 = load double, ptr %second, align 8, !tbaa !94
  call void @_ZN8QuantLib17GeneralStatistics3addEdd(ptr noundef nonnull align 8 dereferenceable(25) %7, double noundef %8, double noundef %9)
  call void @llvm.lifetime.end.p0(i64 16, ptr %result) #18
  br label %for.inc

for.inc:                                          ; preds = %for.body
  %10 = load i64, ptr %i, align 8, !tbaa !68
  %inc = add i64 %10, 1
  store i64 %inc, ptr %i, align 8, !tbaa !68
  br label %for.cond, !llvm.loop !95

for.end:                                          ; preds = %for.cond.cleanup
  ret void
}