; Function Attrs: mustprogress uwtable
define void @_ZN8QuantLib16UpperBoundEngine18multiplePathValuesERNS_21GenericRiskStatisticsINS_25GenericGaussianStatisticsINS_17GeneralStatisticsEEEEEmm(ptr noundef nonnull align 8 dereferenceable(512) %this, ptr noundef nonnull align 8 dereferenceable(25) %stats, i64 noundef %outerPaths, i64 noundef %innerPaths) local_unnamed_addr #1 align 2 {
entry:
  %cmp2.not = icmp eq i64 %outerPaths, 0
  br i1 %cmp2.not, label %for.cond.cleanup, label %for.body

for.cond.cleanup:                                 ; preds = %for.body, %entry
  ret void

for.body:                                         ; preds = %entry, %for.body
  %i.03 = phi i64 [ %inc, %for.body ], [ 0, %entry ]
  %call = tail call { double, double } @_ZN8QuantLib16UpperBoundEngine15singlePathValueEm(ptr noundef nonnull align 8 dereferenceable(512) %this, i64 noundef %innerPaths)
  %0 = extractvalue { double, double } %call, 0
  %1 = extractvalue { double, double } %call, 1
  tail call void @_ZN8QuantLib17GeneralStatistics3addEdd(ptr noundef nonnull align 8 dereferenceable(25) %stats, double noundef %0, double noundef %1)
  %inc = add nuw i64 %i.03, 1
  %exitcond.not = icmp eq i64 %inc, %outerPaths
  br i1 %exitcond.not, label %for.cond.cleanup, label %for.body, !llvm.loop !156
}